target datalayout = "e-m:e-p270:32:32-p271:32:32-p272:64:64-i64:64-i128:128-f80:128-n8:16:32:64-S128"
target triple = "x86_64-pc-linux-gnu"

%"class.clang::QualType" = type { %"class.llvm::PointerIntPair" }
%"class.llvm::PointerIntPair" = type { %"struct.llvm::detail::PunnedPointer" }
%"struct.llvm::detail::PunnedPointer" = type { [8 x i8] }
%"class.llvm::StringRef" = type { ptr, i64 }
%class.anon.614 = type { i32, i32, ptr, ptr, %"class.clang::APValue", %"class.clang::QualType" }
%"class.clang::APValue" = type { i32, [4 x i8], %"struct.llvm::AlignedCharArrayUnion" }
%"struct.llvm::AlignedCharArrayUnion" = type { [64 x i8] }
%"struct.clang::APValue::UnionData" = type { ptr, ptr }

; Function Attrs: mustprogress nounwind uwtable
define linkonce_odr hidden noundef nonnull align 8 dereferenceable(72) ptr @_ZN5clang7APValue13getUnionValueEv(ptr noundef nonnull align 8 dereferenceable(72) %0) #0 comdat align 2 {
  %2 = alloca ptr, align 8
  store ptr %0, ptr %2, align 8
  %3 = load ptr, ptr %2, align 8
  %4 = getelementptr inbounds nuw %"class.clang::APValue", ptr %3, i32 0, i32 2
  %5 = getelementptr inbounds nuw %"struct.clang::APValue::UnionData", ptr %4, i32 0, i32 1
  %6 = load ptr, ptr %5, align 8
  ret ptr %6
}

; Function Attrs: mustprogress nounwind uwtable
define linkonce_odr hidden void @_ZN5clang7APValueD2Ev(ptr noundef nonnull align 8 dereferenceable(72) %0) unnamed_addr #0 comdat align 2 {
  %2 = alloca ptr, align 8
  store ptr %0, ptr %2, align 8
  %3 = load ptr, ptr %2, align 8
  %4 = getelementptr inbounds nuw %"class.clang::APValue", ptr %3, i32 0, i32 0
  %5 = load i32, ptr %4, align 8
  %6 = icmp ne i32 %5, 0
  br i1 %6, label %7, label %12

7:                                                ; preds = %1
  %8 = getelementptr inbounds nuw %"class.clang::APValue", ptr %3, i32 0, i32 0
  %9 = load i32, ptr %8, align 8
  %10 = icmp ne i32 %9, 1
  br i1 %10, label %11, label %12

11:                                               ; preds = %7
  call void @_ZN5clang7APValue24DestroyDataAndMakeUninitEv(ptr noundef nonnull align 8 dereferenceable(72) %3)
  br label %12

12:                                               ; preds = %11, %7, %1
  ret void
}

; Function Attrs: mustprogress nounwind uwtable
define linkonce_odr hidden noundef nonnull align 8 dereferenceable(72) ptr @_ZNK5clang7APValue13getUnionValueEv(ptr noundef nonnull align 8 dereferenceable(72) %0) #0 comdat align 2 {
  %2 = alloca ptr, align 8
  store ptr %0, ptr %2, align 8
  %3 = load ptr, ptr %2, align 8
  %4 = call noundef nonnull align 8 dereferenceable(72) ptr @_ZN5clang7APValue13getUnionValueEv(ptr noundef nonnull align 8 dereferenceable(72) %3)
  ret ptr %4
}

; Function Attrs: mustprogress nounwind uwtable
define linkonce_odr hidden noundef i32 @_ZNK5clang7APValue7getKindEv(ptr noundef nonnull align 8 dereferenceable(72) %0) #0 comdat align 2 {
  %2 = alloca ptr, align 8
  store ptr %0, ptr %2, align 8
  %3 = load ptr, ptr %2, align 8
  %4 = getelementptr inbounds nuw %"class.clang::APValue", ptr %3, i32 0, i32 0
  %5 = load i32, ptr %4, align 8
  ret i32 %5
}

; Function Attrs: mustprogress nounwind uwtable
define internal void @"_ZZN5clang14TextNodeDumper19dumpAPValueChildrenERKNS_7APValueENS_8QualTypeEPFS3_S3_jEjN4llvm9StringRefES8_EN3$_0D2Ev"(ptr noundef nonnull align 8 dereferenceable(104) %0) unnamed_addr #0 align 2 {
  %2 = alloca ptr, align 8
  store ptr %0, ptr %2, align 8
  %3 = load ptr, ptr %2, align 8
  %4 = getelementptr inbounds nuw %class.anon.614, ptr %3, i32 0, i32 4
  call void @_ZN5clang7APValueD2Ev(ptr noundef nonnull align 8 dereferenceable(72) %4) #14
  ret void
}

; Function Attrs: mustprogress nounwind uwtable
define linkonce_odr noundef nonnull align 4 dereferenceable(4) ptr @_ZSt3maxIjERKT_S2_S2_(ptr noundef nonnull align 4 dereferenceable(4) %0, ptr noundef nonnull align 4 dereferenceable(4) %1) #0 comdat {
  %3 = alloca ptr, align 8
  %4 = alloca ptr, align 8
  %5 = alloca ptr, align 8
  store ptr %0, ptr %4, align 8
  store ptr %1, ptr %5, align 8
  %6 = load ptr, ptr %4, align 8
  %7 = load i32, ptr %6, align 4
  %8 = load ptr, ptr %5, align 8
  %9 = load i32, ptr %8, align 4
  %10 = icmp ult i32 %7, %9
  br i1 %10, label %11, label %13

11:                                               ; preds = %2
  %12 = load ptr, ptr %5, align 8
  store ptr %12, ptr %3, align 8
  br label %15

13:                                               ; preds = %2
  %14 = load ptr, ptr %4, align 8
  store ptr %14, ptr %3, align 8
  br label %15

15:                                               ; preds = %13, %11
  %16 = load ptr, ptr %3, align 8
  ret ptr %16
}

; Function Attrs: mustprogress nounwind uwtable
define internal noundef zeroext i1 @_ZL15isSimpleAPValueRKN5clang7APValueE(ptr noundef nonnull align 8 dereferenceable(72) %0) #0 {
  %2 = alloca i1, align 1
  %3 = alloca ptr, align 8
  store ptr %0, ptr %3, align 8
  %4 = load ptr, ptr %3, align 8
  %5 = call noundef i32 @_ZNK5clang7APValue7getKindEv(ptr noundef nonnull align 8 dereferenceable(72) %4)
  switch i32 %5, label %12 [
    i32 0, label %6
    i32 1, label %6
    i32 2, label %6
    i32 3, label %6
    i32 4, label %6
    i32 5, label %6
    i32 6, label %6
    i32 7, label %6
    i32 12, label %6
    i32 13, label %6
    i32 8, label %7
    i32 9, label %7
    i32 10, label %7
    i32 11, label %8
  ]

6:                                                ; preds = %1, %1, %1, %1, %1, %1, %1, %1, %1, %1
  store i1 true, ptr %2, align 1
  br label %13

7:                                                ; preds = %1, %1, %1
  store i1 false, ptr %2, align 1
  br label %13

8:                                                ; preds = %1
  %9 = load ptr, ptr %3, align 8
  %10 = call noundef nonnull align 8 dereferenceable(72) ptr @_ZNK5clang7APValue13getUnionValueEv(ptr noundef nonnull align 8 dereferenceable(72) %9)
  %11 = call noundef zeroext i1 @_ZL15isSimpleAPValueRKN5clang7APValueE(ptr noundef nonnull align 8 dereferenceable(72) %10)
  store i1 %11, ptr %2, align 1
  br label %13

12:                                               ; preds = %1
  unreachable

13:                                               ; preds = %8, %7, %6
  %14 = load i1, ptr %2, align 1
  ret i1 %14
}

; Function Attrs: mustprogress nounwind uwtable
define dso_local void @_ZN5clang14TextNodeDumper19dumpAPValueChildrenERKNS_7APValueENS_8QualTypeEPFS3_S3_jEjN4llvm9StringRefES8_(ptr noundef nonnull align 8 dereferenceable(1168) %0, ptr noundef nonnull align 8 dereferenceable(72) %1, i64 %2, ptr noundef %3, i32 noundef %4, ptr noundef byval(%"class.llvm::StringRef") align 8 %5, ptr noundef byval(%"class.llvm::StringRef") align 8 %6) #0 align 2 {
  %8 = alloca %"class.clang::QualType", align 8
  %9 = alloca ptr, align 8
  %10 = alloca ptr, align 8
  %11 = alloca ptr, align 8
  %12 = alloca i32, align 4
  %13 = alloca i32, align 4
  %14 = alloca i32, align 4
  %15 = alloca i32, align 4
  %16 = alloca i32, align 4
  %17 = alloca %"class.llvm::StringRef", align 8
  %18 = alloca %class.anon.614, align 8
  %19 = getelementptr inbounds nuw %"class.clang::QualType", ptr %8, i32 0, i32 0
  %20 = getelementptr inbounds nuw %"class.llvm::PointerIntPair", ptr %19, i32 0, i32 0
  %21 = getelementptr inbounds nuw %"struct.llvm::detail::PunnedPointer", ptr %20, i32 0, i32 0
  store i64 %2, ptr %21, align 8
  store ptr %0, ptr %9, align 8
  store ptr %1, ptr %10, align 8
  store ptr %3, ptr %11, align 8
  store i32 %4, ptr %12, align 4
  %22 = load ptr, ptr %9, align 8
  store i32 4, ptr %13, align 4
  store i32 0, ptr %14, align 4
  br label %23

23:                                               ; preds = %59, %7
  %24 = load i32, ptr %14, align 4
  %25 = load i32, ptr %12, align 4
  %26 = icmp ult i32 %24, %25
  br i1 %26, label %27, label %76

27:                                               ; preds = %23
  %28 = load i32, ptr %14, align 4
  store i32 %28, ptr %15, align 4
  br label %29

29:                                               ; preds = %44, %27
  %30 = load i32, ptr %15, align 4
  %31 = load i32, ptr %12, align 4
  %32 = icmp ult i32 %30, %31
  br i1 %32, label %33, label %48

33:                                               ; preds = %29
  %34 = load ptr, ptr %11, align 8
  %35 = load ptr, ptr %10, align 8
  %36 = load i32, ptr %15, align 4
  %37 = call noundef nonnull align 8 dereferenceable(72) ptr %34(ptr noundef nonnull align 8 dereferenceable(72) %35, i32 noundef %36)
  %38 = call noundef zeroext i1 @_ZL15isSimpleAPValueRKN5clang7APValueE(ptr noundef nonnull align 8 dereferenceable(72) %37)
  br i1 %38, label %39, label %47

39:                                               ; preds = %33
  %40 = load i32, ptr %15, align 4
  %41 = load i32, ptr %14, align 4
  %42 = sub i32 %40, %41
  %43 = icmp ult i32 %42, 4
  br i1 %43, label %44, label %47

44:                                               ; preds = %39
  %45 = load i32, ptr %15, align 4
  %46 = add i32 %45, 1
  store i32 %46, ptr %15, align 4
  br label %29, !llvm.loop !4

47:                                               ; preds = %39, %33
  br label %48

48:                                               ; preds = %47, %29
  %49 = load i32, ptr %14, align 4
  %50 = add i32 %49, 1
  store i32 %50, ptr %16, align 4
  %51 = call noundef nonnull align 4 dereferenceable(4) ptr @_ZSt3maxIjERKT_S2_S2_(ptr noundef nonnull align 4 dereferenceable(4) %16, ptr noundef nonnull align 4 dereferenceable(4) %15)
  %52 = load i32, ptr %51, align 4
  store i32 %52, ptr %15, align 4
  %53 = load i32, ptr %15, align 4
  %54 = load i32, ptr %14, align 4
  %55 = sub i32 %53, %54
  %56 = icmp ugt i32 %55, 1
  br i1 %56, label %57, label %58

57:                                               ; preds = %48
  br label %59

58:                                               ; preds = %48
  br label %59

59:                                               ; preds = %58, %57
  %60 = phi ptr [ %6, %57 ], [ %5, %58 ]
  call void @llvm.memcpy.p0.p0.i64(ptr align 8 %17, ptr align 8 %60, i64 16, i1 false)
  %61 = getelementptr inbounds nuw %class.anon.614, ptr %18, i32 0, i32 0
  %62 = load i32, ptr %14, align 4
  store i32 %62, ptr %61, align 8
  %63 = getelementptr inbounds nuw %class.anon.614, ptr %18, i32 0, i32 1
  %64 = load i32, ptr %15, align 4
  store i32 %64, ptr %63, align 4
  %65 = getelementptr inbounds nuw %class.anon.614, ptr %18, i32 0, i32 2
  store ptr %22, ptr %65, align 8
  %66 = getelementptr inbounds nuw %class.anon.614, ptr %18, i32 0, i32 3
  %67 = load ptr, ptr %11, align 8
  store ptr %67, ptr %66, align 8
  %68 = getelementptr inbounds nuw %class.anon.614, ptr %18, i32 0, i32 4
  %69 = load ptr, ptr %10, align 8
  call void @_ZN5clang7APValueC1ERKS0_(ptr noundef nonnull align 8 dereferenceable(72) %68, ptr noundef nonnull align 8 dereferenceable(72) %69)
  %70 = getelementptr inbounds nuw %class.anon.614, ptr %18, i32 0, i32 5
  call void @llvm.memcpy.p0.p0.i64(ptr align 8 %70, ptr align 8 %8, i64 8, i1 false)
  %71 = getelementptr inbounds nuw { ptr, i64 }, ptr %17, i32 0, i32 0
  %72 = load ptr, ptr %71, align 8
  %73 = getelementptr inbounds nuw { ptr, i64 }, ptr %17, i32 0, i32 1
  %74 = load i64, ptr %73, align 8
  call void @"_ZN5clang17TextTreeStructure8AddChildIZNS_14TextNodeDumper19dumpAPValueChildrenERKNS_7APValueENS_8QualTypeEPFS5_S5_jEjN4llvm9StringRefESA_E3$_0EEvSA_T_"(ptr noundef nonnull align 8 dereferenceable(1096) %22, ptr %72, i64 %74, ptr noundef %18)
  call void @"_ZZN5clang14TextNodeDumper19dumpAPValueChildrenERKNS_7APValueENS_8QualTypeEPFS3_S3_jEjN4llvm9StringRefES8_EN3$_0D2Ev"(ptr noundef nonnull align 8 dereferenceable(104) %18) #14
  %75 = load i32, ptr %15, align 4
  store i32 %75, ptr %14, align 4
  br label %23, !llvm.loop !6

76:                                               ; preds = %23
  ret void
}