; Function Attrs: mustprogress nounwind uwtable
define dso_local void @_ZN5clang14TextNodeDumper19dumpAPValueChildrenERKNS_7APValueENS_8QualTypeEPFS3_S3_jEjN4llvm9StringRefES8_(ptr noundef nonnull align 8 dereferenceable(1168) %0, ptr noundef nonnull align 8 dereferenceable(72) %1, i64 %2, ptr noundef %3, i32 noundef %4, ptr nocapture noundef readonly byval(%"class.llvm::StringRef") align 8 %5, ptr nocapture noundef readonly byval(%"class.llvm::StringRef") align 8 %6) local_unnamed_addr #0 align 2 {
  %8 = alloca %class.anon.614, align 8
  %.not = icmp eq i32 %4, 0
  br i1 %.not, label %._crit_edge, label %.preheader.lr.ph

.preheader.lr.ph:                                 ; preds = %7
  %9 = getelementptr inbounds nuw i8, ptr %8, i64 4
  %10 = getelementptr inbounds nuw i8, ptr %8, i64 8
  %11 = getelementptr inbounds nuw i8, ptr %8, i64 16
  %12 = getelementptr inbounds nuw i8, ptr %8, i64 24
  %13 = getelementptr inbounds nuw i8, ptr %8, i64 96
  br label %.preheader

.preheader:                                       ; preds = %.preheader.lr.ph, %"_ZZN5clang14TextNodeDumper19dumpAPValueChildrenERKNS_7APValueENS_8QualTypeEPFS3_S3_jEjN4llvm9StringRefES8_EN3$_0D2Ev.exit"
  %.027 = phi i32 [ 0, %.preheader.lr.ph ], [ %.sroa.speculated, %"_ZZN5clang14TextNodeDumper19dumpAPValueChildrenERKNS_7APValueENS_8QualTypeEPFS3_S3_jEjN4llvm9StringRefES8_EN3$_0D2Ev.exit" ]
  br label %14

14:                                               ; preds = %.preheader, %24
  %storemerge26 = phi i32 [ %.027, %.preheader ], [ %25, %24 ]
  %15 = call noundef nonnull align 8 dereferenceable(72) ptr %3(ptr noundef nonnull align 8 dereferenceable(72) %1, i32 noundef %storemerge26) #18
  br label %tailrecurse.i

tailrecurse.i:                                    ; preds = %17, %14
  %.tr.i = phi ptr [ %15, %14 ], [ %19, %17 ]
  %16 = load i32, ptr %.tr.i, align 8
  switch i32 %16, label %20 [
    i32 0, label %21
    i32 1, label %21
    i32 2, label %21
    i32 3, label %21
    i32 4, label %21
    i32 5, label %21
    i32 6, label %21
    i32 7, label %21
    i32 12, label %21
    i32 13, label %21
    i32 8, label %_ZL15isSimpleAPValueRKN5clang7APValueE.exit
    i32 9, label %_ZL15isSimpleAPValueRKN5clang7APValueE.exit
    i32 10, label %_ZL15isSimpleAPValueRKN5clang7APValueE.exit
    i32 11, label %17
  ]

17:                                               ; preds = %tailrecurse.i
  %18 = getelementptr inbounds i8, ptr %.tr.i, i64 16
  %19 = load ptr, ptr %18, align 8
  br label %tailrecurse.i

20:                                               ; preds = %tailrecurse.i
  unreachable

21:                                               ; preds = %tailrecurse.i, %tailrecurse.i, %tailrecurse.i, %tailrecurse.i, %tailrecurse.i, %tailrecurse.i, %tailrecurse.i, %tailrecurse.i, %tailrecurse.i, %tailrecurse.i
  %22 = sub i32 %storemerge26, %.027
  %23 = icmp ult i32 %22, 4
  br i1 %23, label %24, label %_ZL15isSimpleAPValueRKN5clang7APValueE.exit

24:                                               ; preds = %21
  %25 = add i32 %storemerge26, 1
  %26 = icmp ult i32 %25, %4
  br i1 %26, label %14, label %_ZL15isSimpleAPValueRKN5clang7APValueE.exit, !llvm.loop !16

_ZL15isSimpleAPValueRKN5clang7APValueE.exit:      ; preds = %21, %24, %tailrecurse.i, %tailrecurse.i, %tailrecurse.i
  %storemerge25 = phi i32 [ %storemerge26, %tailrecurse.i ], [ %storemerge26, %tailrecurse.i ], [ %storemerge26, %tailrecurse.i ], [ %25, %24 ], [ %storemerge26, %21 ]
  %27 = add i32 %.027, 1
  %.sroa.speculated = call i32 @llvm.umax.i32(i32 %27, i32 %storemerge25)
  %28 = sub i32 %.sroa.speculated, %.027
  %29 = icmp ugt i32 %28, 1
  %. = select i1 %29, ptr %6, ptr %5
  %.sroa.0.0.copyload = load ptr, ptr %., align 8
  %.sroa.2.0...sroa_idx = getelementptr inbounds i8, ptr %., i64 8
  %.sroa.2.0.copyload = load i64, ptr %.sroa.2.0...sroa_idx, align 8
  store i32 %.027, ptr %8, align 8
  store i32 %.sroa.speculated, ptr %9, align 4
  store ptr %0, ptr %10, align 8
  store ptr %3, ptr %11, align 8
  call void @_ZN5clang7APValueC1ERKS0_(ptr noundef nonnull align 8 dereferenceable(72) %12, ptr noundef nonnull align 8 dereferenceable(72) %1) #18
  store i64 %2, ptr %13, align 8
  call fastcc void @"_ZN5clang17TextTreeStructure8AddChildIZNS_14TextNodeDumper19dumpAPValueChildrenERKNS_7APValueENS_8QualTypeEPFS5_S5_jEjN4llvm9StringRefESA_E3$_0EEvSA_T_"(ptr noundef nonnull align 8 dereferenceable(1096) %0, ptr %.sroa.0.0.copyload, i64 %.sroa.2.0.copyload, ptr noundef nonnull %8)
  %30 = load i32, ptr %12, align 8
  %switch.i.i = icmp ult i32 %30, 2
  br i1 %switch.i.i, label %"_ZZN5clang14TextNodeDumper19dumpAPValueChildrenERKNS_7APValueENS_8QualTypeEPFS3_S3_jEjN4llvm9StringRefES8_EN3$_0D2Ev.exit", label %31

31:                                               ; preds = %_ZL15isSimpleAPValueRKN5clang7APValueE.exit
  call void @_ZN5clang7APValue24DestroyDataAndMakeUninitEv(ptr noundef nonnull align 8 dereferenceable(72) %12) #18
  br label %"_ZZN5clang14TextNodeDumper19dumpAPValueChildrenERKNS_7APValueENS_8QualTypeEPFS3_S3_jEjN4llvm9StringRefES8_EN3$_0D2Ev.exit"

"_ZZN5clang14TextNodeDumper19dumpAPValueChildrenERKNS_7APValueENS_8QualTypeEPFS3_S3_jEjN4llvm9StringRefES8_EN3$_0D2Ev.exit": ; preds = %_ZL15isSimpleAPValueRKN5clang7APValueE.exit, %31
  %32 = icmp ult i32 %.sroa.speculated, %4
  br i1 %32, label %.preheader, label %._crit_edge, !llvm.loop !17

._crit_edge:                                      ; preds = %"_ZZN5clang14TextNodeDumper19dumpAPValueChildrenERKNS_7APValueENS_8QualTypeEPFS3_S3_jEjN4llvm9StringRefES8_EN3$_0D2Ev.exit", %7
  ret void
}